target datalayout = "e-m:e-p270:32:32-p271:32:32-p272:64:64-i64:64-i128:128-f80:128-n8:16:32:64-S128"
target triple = "x86_64-unknown-linux-gnu"

%"struct.node::AssertionInfo" = type { ptr, ptr, ptr }
%"class.node::SocketAddress" = type { %"class.node::MemoryRetainer", %struct.sockaddr_storage }
%"class.node::MemoryRetainer" = type { ptr }
%struct.sockaddr_storage = type { i16, [118 x i8], i64 }
%struct.sockaddr_in = type { i16, i16, %struct.in_addr, [8 x i8] }
%struct.in_addr = type { i32 }
%struct.sockaddr_in6 = type { i16, i16, i32, %struct.in6_addr, i32 }
%struct.in6_addr = type { %union.anon }
%union.anon = type { [4 x i32] }
%"struct.std::hash.472" = type { i8 }
%"struct.std::hash.474" = type { i8 }
%"struct.std::hash.476" = type { i8 }

@_ZZNK4node13SocketAddress4HashclERKS0_E4args = internal constant %"struct.node::AssertionInfo" { ptr @.str.3, ptr @.str.1, ptr @.str.4 }, align 8

; Function Attrs: mustprogress nounwind uwtable
define linkonce_odr dso_local void @_ZN4node12hash_combineImJEEEvPmRKT_DpT0_(ptr noundef %seed, ptr noundef nonnull align 8 dereferenceable(8) %value) #4 comdat {
entry:
  %seed.addr = alloca ptr, align 8
  %value.addr = alloca ptr, align 8
  %ref.tmp = alloca %"struct.std::hash.476", align 1
  store ptr %seed, ptr %seed.addr, align 8
  store ptr %value, ptr %value.addr, align 8
  %0 = load ptr, ptr %value.addr, align 8
  %1 = load i64, ptr %0, align 8
  %call = call noundef i64 @_ZNKSt4hashImEclEm(ptr noundef nonnull align 1 dereferenceable(1) %ref.tmp, i64 noundef %1) #3
  %add = add i64 %call, 2654435769
  %2 = load ptr, ptr %seed.addr, align 8
  %3 = load i64, ptr %2, align 8
  %shl = shl i64 %3, 6
  %add1 = add i64 %add, %shl
  %4 = load ptr, ptr %seed.addr, align 8
  %5 = load i64, ptr %4, align 8
  %shr = lshr i64 %5, 2
  %add2 = add i64 %add1, %shr
  %6 = load ptr, ptr %seed.addr, align 8
  %7 = load i64, ptr %6, align 8
  %xor = xor i64 %7, %add2
  store i64 %xor, ptr %6, align 8
  %8 = load ptr, ptr %seed.addr, align 8
  call void @_ZN4node12hash_combineEPm(ptr noundef %8)
  ret void
}

; Function Attrs: mustprogress nounwind uwtable
define linkonce_odr dso_local noundef i64 @_ZNKSt4hashImEclEm(ptr noundef nonnull align 1 dereferenceable(1) %this, i64 noundef %__val) #4 comdat align 2 {
entry:
  %this.addr = alloca ptr, align 8
  %__val.addr = alloca i64, align 8
  store ptr %this, ptr %this.addr, align 8
  store i64 %__val, ptr %__val.addr, align 8
  %0 = load i64, ptr %__val.addr, align 8
  ret i64 %0
}

; Function Attrs: mustprogress nounwind uwtable
define linkonce_odr dso_local void @_ZN4node12hash_combineEPm(ptr noundef %seed) #4 comdat {
entry:
  %seed.addr = alloca ptr, align 8
  store ptr %seed, ptr %seed.addr, align 8
  ret void
}

; Function Attrs: mustprogress nounwind uwtable
define linkonce_odr dso_local noundef i64 @_ZNKSt4hashIjEclEj(ptr noundef nonnull align 1 dereferenceable(1) %this, i32 noundef %__val) #4 comdat align 2 {
entry:
  %this.addr = alloca ptr, align 8
  %__val.addr = alloca i32, align 4
  store ptr %this, ptr %this.addr, align 8
  store i32 %__val, ptr %__val.addr, align 4
  %0 = load i32, ptr %__val.addr, align 4
  %conv = zext i32 %0 to i64
  ret i64 %conv
}

; Function Attrs: mustprogress nounwind uwtable
define linkonce_odr dso_local void @_ZN4node12hash_combineImJmEEEvPmRKT_DpT0_(ptr noundef %seed, ptr noundef nonnull align 8 dereferenceable(8) %value, i64 noundef %rest) #4 comdat {
entry:
  %seed.addr = alloca ptr, align 8
  %value.addr = alloca ptr, align 8
  %rest.addr = alloca i64, align 8
  %ref.tmp = alloca %"struct.std::hash.476", align 1
  store ptr %seed, ptr %seed.addr, align 8
  store ptr %value, ptr %value.addr, align 8
  store i64 %rest, ptr %rest.addr, align 8
  %0 = load ptr, ptr %value.addr, align 8
  %1 = load i64, ptr %0, align 8
  %call = call noundef i64 @_ZNKSt4hashImEclEm(ptr noundef nonnull align 1 dereferenceable(1) %ref.tmp, i64 noundef %1) #3
  %add = add i64 %call, 2654435769
  %2 = load ptr, ptr %seed.addr, align 8
  %3 = load i64, ptr %2, align 8
  %shl = shl i64 %3, 6
  %add1 = add i64 %add, %shl
  %4 = load ptr, ptr %seed.addr, align 8
  %5 = load i64, ptr %4, align 8
  %shr = lshr i64 %5, 2
  %add2 = add i64 %add1, %shr
  %6 = load ptr, ptr %seed.addr, align 8
  %7 = load i64, ptr %6, align 8
  %xor = xor i64 %7, %add2
  store i64 %xor, ptr %6, align 8
  %8 = load ptr, ptr %seed.addr, align 8
  call void @_ZN4node12hash_combineImJEEEvPmRKT_DpT0_(ptr noundef %8, ptr noundef nonnull align 8 dereferenceable(8) %rest.addr)
  ret void
}

; Function Attrs: mustprogress nounwind uwtable
define linkonce_odr dso_local void @_ZN4node12hash_combineIjJEEEvPmRKT_DpT0_(ptr noundef %seed, ptr noundef nonnull align 4 dereferenceable(4) %value) #4 comdat {
entry:
  %seed.addr = alloca ptr, align 8
  %value.addr = alloca ptr, align 8
  %ref.tmp = alloca %"struct.std::hash.474", align 1
  store ptr %seed, ptr %seed.addr, align 8
  store ptr %value, ptr %value.addr, align 8
  %0 = load ptr, ptr %value.addr, align 8
  %1 = load i32, ptr %0, align 4
  %call = call noundef i64 @_ZNKSt4hashIjEclEj(ptr noundef nonnull align 1 dereferenceable(1) %ref.tmp, i32 noundef %1) #3
  %add = add i64 %call, 2654435769
  %2 = load ptr, ptr %seed.addr, align 8
  %3 = load i64, ptr %2, align 8
  %shl = shl i64 %3, 6
  %add1 = add i64 %add, %shl
  %4 = load ptr, ptr %seed.addr, align 8
  %5 = load i64, ptr %4, align 8
  %shr = lshr i64 %5, 2
  %add2 = add i64 %add1, %shr
  %6 = load ptr, ptr %seed.addr, align 8
  %7 = load i64, ptr %6, align 8
  %xor = xor i64 %7, %add2
  store i64 %xor, ptr %6, align 8
  %8 = load ptr, ptr %seed.addr, align 8
  call void @_ZN4node12hash_combineEPm(ptr noundef %8)
  ret void
}

; Function Attrs: mustprogress nounwind uwtable
define linkonce_odr dso_local noundef i64 @_ZNKSt4hashItEclEt(ptr noundef nonnull align 1 dereferenceable(1) %this, i16 noundef zeroext %__val) #4 comdat align 2 {
entry:
  %this.addr = alloca ptr, align 8
  %__val.addr = alloca i16, align 2
  store ptr %this, ptr %this.addr, align 8
  store i16 %__val, ptr %__val.addr, align 2
  %0 = load i16, ptr %__val.addr, align 2
  %conv = zext i16 %0 to i64
  ret i64 %conv
}

; Function Attrs: mustprogress nounwind uwtable
define linkonce_odr dso_local void @_ZN4node12hash_combineItJmmEEEvPmRKT_DpT0_(ptr noundef %seed, ptr noundef nonnull align 2 dereferenceable(2) %value, i64 noundef %rest, i64 noundef %rest1) #4 comdat {
entry:
  %seed.addr = alloca ptr, align 8
  %value.addr = alloca ptr, align 8
  %rest.addr = alloca i64, align 8
  %rest.addr2 = alloca i64, align 8
  %ref.tmp = alloca %"struct.std::hash.472", align 1
  store ptr %seed, ptr %seed.addr, align 8
  store ptr %value, ptr %value.addr, align 8
  store i64 %rest, ptr %rest.addr, align 8
  store i64 %rest1, ptr %rest.addr2, align 8
  %0 = load ptr, ptr %value.addr, align 8
  %1 = load i16, ptr %0, align 2
  %call = call noundef i64 @_ZNKSt4hashItEclEt(ptr noundef nonnull align 1 dereferenceable(1) %ref.tmp, i16 noundef zeroext %1) #3
  %add = add i64 %call, 2654435769
  %2 = load ptr, ptr %seed.addr, align 8
  %3 = load i64, ptr %2, align 8
  %shl = shl i64 %3, 6
  %add3 = add i64 %add, %shl
  %4 = load ptr, ptr %seed.addr, align 8
  %5 = load i64, ptr %4, align 8
  %shr = lshr i64 %5, 2
  %add4 = add i64 %add3, %shr
  %6 = load ptr, ptr %seed.addr, align 8
  %7 = load i64, ptr %6, align 8
  %xor = xor i64 %7, %add4
  store i64 %xor, ptr %6, align 8
  %8 = load ptr, ptr %seed.addr, align 8
  %9 = load i64, ptr %rest.addr2, align 8
  call void @_ZN4node12hash_combineImJmEEEvPmRKT_DpT0_(ptr noundef %8, ptr noundef nonnull align 8 dereferenceable(8) %rest.addr, i64 noundef %9)
  ret void
}

; Function Attrs: mustprogress nounwind uwtable
define linkonce_odr dso_local void @_ZN4node12hash_combineItJjEEEvPmRKT_DpT0_(ptr noundef %seed, ptr noundef nonnull align 2 dereferenceable(2) %value, i32 noundef %rest) #4 comdat {
entry:
  %seed.addr = alloca ptr, align 8
  %value.addr = alloca ptr, align 8
  %rest.addr = alloca i32, align 4
  %ref.tmp = alloca %"struct.std::hash.472", align 1
  store ptr %seed, ptr %seed.addr, align 8
  store ptr %value, ptr %value.addr, align 8
  store i32 %rest, ptr %rest.addr, align 4
  %0 = load ptr, ptr %value.addr, align 8
  %1 = load i16, ptr %0, align 2
  %call = call noundef i64 @_ZNKSt4hashItEclEt(ptr noundef nonnull align 1 dereferenceable(1) %ref.tmp, i16 noundef zeroext %1) #3
  %add = add i64 %call, 2654435769
  %2 = load ptr, ptr %seed.addr, align 8
  %3 = load i64, ptr %2, align 8
  %shl = shl i64 %3, 6
  %add1 = add i64 %add, %shl
  %4 = load ptr, ptr %seed.addr, align 8
  %5 = load i64, ptr %4, align 8
  %shr = lshr i64 %5, 2
  %add2 = add i64 %add1, %shr
  %6 = load ptr, ptr %seed.addr, align 8
  %7 = load i64, ptr %6, align 8
  %xor = xor i64 %7, %add2
  store i64 %xor, ptr %6, align 8
  %8 = load ptr, ptr %seed.addr, align 8
  call void @_ZN4node12hash_combineIjJEEEvPmRKT_DpT0_(ptr noundef %8, ptr noundef nonnull align 4 dereferenceable(4) %rest.addr)
  ret void
}

; Function Attrs: mustprogress nounwind uwtable
define linkonce_odr dso_local noundef ptr @_ZNK4node13SocketAddress3rawEv(ptr noundef nonnull align 8 dereferenceable(136) %this) #4 comdat align 2 {
entry:
  %this.addr = alloca ptr, align 8
  store ptr %this, ptr %this.addr, align 8
  %this1 = load ptr, ptr %this.addr, align 8
  %address_ = getelementptr inbounds %"class.node::SocketAddress", ptr %this1, i32 0, i32 1
  ret ptr %address_
}

; Function Attrs: mustprogress nounwind uwtable
define linkonce_odr dso_local noundef i32 @_ZNK4node13SocketAddress6familyEv(ptr noundef nonnull align 8 dereferenceable(136) %this) #4 comdat align 2 {
entry:
  %this.addr = alloca ptr, align 8
  store ptr %this, ptr %this.addr, align 8
  %this1 = load ptr, ptr %this.addr, align 8
  %address_ = getelementptr inbounds %"class.node::SocketAddress", ptr %this1, i32 0, i32 1
  %ss_family = getelementptr inbounds %struct.sockaddr_storage, ptr %address_, i32 0, i32 0
  %0 = load i16, ptr %ss_family, align 8
  %conv = zext i16 %0 to i32
  ret i32 %conv
}

; Function Attrs: mustprogress nounwind uwtable
define dso_local noundef i64 @_ZNK4node13SocketAddress4HashclERKS0_(ptr noundef nonnull align 1 dereferenceable(1) %this, ptr noundef nonnull align 8 dereferenceable(136) %addr) #4 align 2 {
entry:
  %this.addr = alloca ptr, align 8
  %addr.addr = alloca ptr, align 8
  %hash = alloca i64, align 8
  %ipv4 = alloca ptr, align 8
  %ipv6 = alloca ptr, align 8
  %a = alloca ptr, align 8
  store ptr %this, ptr %this.addr, align 8
  store ptr %addr, ptr %addr.addr, align 8
  store i64 0, ptr %hash, align 8
  %0 = load ptr, ptr %addr.addr, align 8
  %call = call noundef i32 @_ZNK4node13SocketAddress6familyEv(ptr noundef nonnull align 8 dereferenceable(136) %0)
  switch i32 %call, label %sw.default [
    i32 2, label %sw.bb
    i32 10, label %sw.bb3
  ]

sw.bb:                                            ; preds = %entry
  %1 = load ptr, ptr %addr.addr, align 8
  %call2 = call noundef ptr @_ZNK4node13SocketAddress3rawEv(ptr noundef nonnull align 8 dereferenceable(136) %1)
  store ptr %call2, ptr %ipv4, align 8
  %2 = load ptr, ptr %ipv4, align 8
  %sin_port = getelementptr inbounds %struct.sockaddr_in, ptr %2, i32 0, i32 1
  %3 = load ptr, ptr %ipv4, align 8
  %sin_addr = getelementptr inbounds %struct.sockaddr_in, ptr %3, i32 0, i32 2
  %s_addr = getelementptr inbounds %struct.in_addr, ptr %sin_addr, i32 0, i32 0
  %4 = load i32, ptr %s_addr, align 4
  call void @_ZN4node12hash_combineItJjEEEvPmRKT_DpT0_(ptr noundef %hash, ptr noundef nonnull align 2 dereferenceable(2) %sin_port, i32 noundef %4)
  br label %sw.epilog

sw.bb3:                                           ; preds = %entry
  %5 = load ptr, ptr %addr.addr, align 8
  %call4 = call noundef ptr @_ZNK4node13SocketAddress3rawEv(ptr noundef nonnull align 8 dereferenceable(136) %5)
  store ptr %call4, ptr %ipv6, align 8
  %6 = load ptr, ptr %ipv6, align 8
  %sin6_addr = getelementptr inbounds %struct.sockaddr_in6, ptr %6, i32 0, i32 3
  store ptr %sin6_addr, ptr %a, align 8
  %7 = load ptr, ptr %ipv6, align 8
  %sin6_port = getelementptr inbounds %struct.sockaddr_in6, ptr %7, i32 0, i32 1
  %8 = load ptr, ptr %a, align 8
  %arrayidx = getelementptr inbounds i64, ptr %8, i64 0
  %9 = load i64, ptr %arrayidx, align 8
  %10 = load ptr, ptr %a, align 8
  %arrayidx5 = getelementptr inbounds i64, ptr %10, i64 1
  %11 = load i64, ptr %arrayidx5, align 8
  call void @_ZN4node12hash_combineItJmmEEEvPmRKT_DpT0_(ptr noundef %hash, ptr noundef nonnull align 2 dereferenceable(2) %sin6_port, i64 noundef %9, i64 noundef %11)
  br label %sw.epilog

sw.default:                                       ; preds = %entry
  br label %do.body

do.body:                                          ; preds = %sw.default
  call void @_ZN4node6AssertERKNS_13AssertionInfoE(ptr noundef nonnull align 8 dereferenceable(24) @_ZZNK4node13SocketAddress4HashclERKS0_E4args)
  call void @abort() #15
  unreachable

do.end:                                           ; No predecessors!
  br label %sw.epilog

sw.epilog:                                        ; preds = %do.end, %sw.bb3, %sw.bb
  %12 = load i64, ptr %hash, align 8
  ret i64 %12
}