; Function Attrs: mustprogress nounwind uwtable
define dso_local noundef i64 @_ZNK4node13SocketAddress4HashclERKS0_(ptr nocapture noundef nonnull readnone align 1 dereferenceable(1) %this, ptr nocapture noundef nonnull readonly align 8 dereferenceable(136) %addr) local_unnamed_addr #3 align 2 {
entry:
  %address_.i = getelementptr inbounds i8, ptr %addr, i64 8
  %0 = load i16, ptr %address_.i, align 8
  switch i16 %0, label %do.body [
    i16 2, label %sw.bb
    i16 10, label %sw.bb3
  ]

sw.bb:                                            ; preds = %entry
  %sin_port = getelementptr inbounds i8, ptr %addr, i64 10
  %sin_addr = getelementptr inbounds i8, ptr %addr, i64 12
  %1 = load i32, ptr %sin_addr, align 4
  %2 = load i16, ptr %sin_port, align 2
  %conv.i.i = zext i16 %2 to i64
  %add.i = add nuw nsw i64 %conv.i.i, 2654435769
  %conv.i.i.i = zext i32 %1 to i64
  br label %sw.epilog

sw.bb3:                                           ; preds = %entry
  %sin6_addr = getelementptr inbounds i8, ptr %addr, i64 16
  %sin6_port = getelementptr inbounds i8, ptr %addr, i64 10
  %3 = load i64, ptr %sin6_addr, align 8
  %arrayidx5 = getelementptr inbounds i8, ptr %addr, i64 24
  %4 = load i64, ptr %arrayidx5, align 8
  %5 = load i16, ptr %sin6_port, align 2
  %conv.i.i8 = zext i16 %5 to i64
  %add.i9 = add nuw nsw i64 %conv.i.i8, 2654435769
  %add.i.i13 = add i64 %3, 2654435769
  %shl.i.i14 = shl nuw nsw i64 %add.i9, 6
  %add1.i.i15 = add i64 %add.i.i13, %shl.i.i14
  %shr.i.i16 = lshr i64 %add.i9, 2
  %add2.i.i17 = add i64 %add1.i.i15, %shr.i.i16
  %xor.i.i18 = xor i64 %add2.i.i17, %add.i9
  br label %sw.epilog

do.body:                                          ; preds = %entry
  tail call void @_ZN4node6AssertERKNS_13AssertionInfoE(ptr noundef nonnull align 8 dereferenceable(24) @_ZZNK4node13SocketAddress4HashclERKS0_E4args) #21
  tail call void @abort() #22
  unreachable

sw.epilog:                                        ; preds = %sw.bb3, %sw.bb
  %.sink = phi i64 [ %4, %sw.bb3 ], [ %conv.i.i.i, %sw.bb ]
  %xor.i.i18.sink22 = phi i64 [ %xor.i.i18, %sw.bb3 ], [ %add.i, %sw.bb ]
  %add.i.i.i = add i64 %.sink, 2654435769
  %shl.i.i.i = shl i64 %xor.i.i18.sink22, 6
  %add1.i.i.i = add i64 %add.i.i.i, %shl.i.i.i
  %shr.i.i.i = lshr i64 %xor.i.i18.sink22, 2
  %add2.i.i.i = add i64 %add1.i.i.i, %shr.i.i.i
  %xor.i.i.i = xor i64 %add2.i.i.i, %xor.i.i18.sink22
  ret i64 %xor.i.i.i
}